; Function Attrs: mustprogress uwtable
define void @_ZN7rocksdb11WriteThread22WaitForStallEndedCountEm(ptr noundef nonnull align 8 dereferenceable(432) %0, i64 noundef %1) local_unnamed_addr #4 align 2 personality ptr @__gxx_personality_v0 {
  %3 = getelementptr inbounds nuw i8, ptr %0, i64 320
  tail call void @_ZN7rocksdb4port5Mutex4LockEv(ptr noundef nonnull align 8 dereferenceable(40) %3)
  %4 = getelementptr inbounds nuw i8, ptr %0, i64 424
  %5 = getelementptr inbounds nuw i8, ptr %0, i64 360
  br label %6

6:                                                ; preds = %9, %2
  %7 = load i64, ptr %4, align 8, !tbaa !173
  %8 = icmp ult i64 %7, %1
  br i1 %8, label %9, label %15

9:                                                ; preds = %6
  invoke void @_ZN7rocksdb4port7CondVar4WaitEv(ptr noundef nonnull align 8 dereferenceable(56) %5)
          to label %6 unwind label %10, !llvm.loop !174

10:                                               ; preds = %9
  %11 = landingpad { ptr, i32 }
          cleanup
  invoke void @_ZN7rocksdb4port5Mutex6UnlockEv(ptr noundef nonnull align 8 dereferenceable(40) %3)
          to label %_ZN7rocksdb9MutexLockD2Ev.exit unwind label %12

12:                                               ; preds = %10
  %13 = landingpad { ptr, i32 }
          catch ptr null
  %14 = extractvalue { ptr, i32 } %13, 0
  tail call void @__clang_call_terminate(ptr %14) #24
  unreachable

_ZN7rocksdb9MutexLockD2Ev.exit:                   ; preds = %10
  resume { ptr, i32 } %11

15:                                               ; preds = %6
  invoke void @_ZN7rocksdb4port5Mutex6UnlockEv(ptr noundef nonnull align 8 dereferenceable(40) %3)
          to label %_ZN7rocksdb9MutexLockD2Ev.exit3 unwind label %16

16:                                               ; preds = %15
  %17 = landingpad { ptr, i32 }
          catch ptr null
  %18 = extractvalue { ptr, i32 } %17, 0
  tail call void @__clang_call_terminate(ptr %18) #24
  unreachable

_ZN7rocksdb9MutexLockD2Ev.exit3:                  ; preds = %15
  ret void
}